target datalayout = "e-m:e-p270:32:32-p271:32:32-p272:64:64-i64:64-i128:128-f80:128-n8:16:32:64-S128"
target triple = "x86_64-pc-linux-gnu"

@.str = private unnamed_addr constant [14 x i8] c"GMX_MAXBACKUP\00", align 1
@_ZL16s_maxBackupCount = internal global i32 0, align 4

; Function Attrs: mustprogress nounwind uwtable
define void @_Z24gmx_set_max_backup_counti(i32 noundef %0) #4 {
  %2 = alloca i32, align 4
  %3 = alloca ptr, align 8
  store i32 %0, ptr %2, align 4, !tbaa !11
  %4 = load i32, ptr %2, align 4, !tbaa !11
  %5 = icmp slt i32 %4, 0
  br i1 %5, label %6, label %20

6:                                                ; preds = %1
  call void @llvm.lifetime.start.p0(i64 8, ptr %3) #3
  %7 = call ptr @getenv(ptr noundef @.str) #3
  store ptr %7, ptr %3, align 8, !tbaa !13
  %8 = load ptr, ptr %3, align 8, !tbaa !13
  %9 = icmp ne ptr %8, null
  br i1 %9, label %10, label %18

10:                                               ; preds = %6
  %11 = load ptr, ptr %3, align 8, !tbaa !13
  %12 = call i64 @strtol(ptr noundef %11, ptr noundef null, i32 noundef 10) #3
  %13 = trunc i64 %12 to i32
  store i32 %13, ptr %2, align 4, !tbaa !11
  %14 = load i32, ptr %2, align 4, !tbaa !11
  %15 = icmp slt i32 %14, 0
  br i1 %15, label %16, label %17

16:                                               ; preds = %10
  store i32 0, ptr %2, align 4, !tbaa !11
  br label %17

17:                                               ; preds = %16, %10
  br label %19

18:                                               ; preds = %6
  store i32 99, ptr %2, align 4, !tbaa !11
  br label %19

19:                                               ; preds = %18, %17
  call void @llvm.lifetime.end.p0(i64 8, ptr %3) #3
  br label %20

20:                                               ; preds = %19, %1
  %21 = load i32, ptr %2, align 4, !tbaa !11
  store i32 %21, ptr @_ZL16s_maxBackupCount, align 4, !tbaa !11
  ret void
}