; Function Attrs: mustprogress nofree nounwind uwtable
define void @_Z24gmx_set_max_backup_counti(i32 noundef %0) local_unnamed_addr #5 {
  %2 = icmp slt i32 %0, 0
  br i1 %2, label %3, label %8

3:                                                ; preds = %1
  %4 = tail call ptr @getenv(ptr noundef nonnull @.str) #30
  %.not = icmp eq ptr %4, null
  br i1 %.not, label %8, label %5

5:                                                ; preds = %3
  %6 = tail call i64 @strtol(ptr noundef nonnull captures(none) %4, ptr noundef null, i32 noundef 10) #30
  %7 = trunc i64 %6 to i32
  %spec.store.select = tail call i32 @llvm.smax.i32(i32 %7, i32 0)
  br label %8

8:                                                ; preds = %5, %3, %1
  %.0 = phi i32 [ %0, %1 ], [ %spec.store.select, %5 ], [ 99, %3 ]
  store i32 %.0, ptr @_ZL16s_maxBackupCount, align 4, !tbaa !9
  ret void
}